target datalayout = "e-m:e-p270:32:32-p271:32:32-p272:64:64-i64:64-i128:128-f80:128-n8:16:32:64-S128"
target triple = "x86_64-unknown-linux-gnu"

; Function Attrs: mustprogress nounwind uwtable
define hidden noundef ptr @_ZN4llvh16itanium_demangle19parse_discriminatorEPKcS2_(ptr noundef %first, ptr noundef %last) #0 {
entry:
  %first.addr = alloca ptr, align 8
  %last.addr = alloca ptr, align 8
  %t1 = alloca ptr, align 8
  %t129 = alloca ptr, align 8
  store ptr %first, ptr %first.addr, align 8
  store ptr %last, ptr %last.addr, align 8
  %0 = load ptr, ptr %first.addr, align 8
  %1 = load ptr, ptr %last.addr, align 8
  %cmp = icmp ne ptr %0, %1
  br i1 %cmp, label %if.then, label %if.end47

if.then:                                          ; preds = %entry
  %2 = load ptr, ptr %first.addr, align 8
  %3 = load i8, ptr %2, align 1
  %conv = sext i8 %3 to i32
  %cmp1 = icmp eq i32 %conv, 95
  br i1 %cmp1, label %if.then2, label %if.else24

if.then2:                                         ; preds = %if.then
  %4 = load ptr, ptr %first.addr, align 8
  %add.ptr = getelementptr inbounds i8, ptr %4, i64 1
  store ptr %add.ptr, ptr %t1, align 8
  %5 = load ptr, ptr %t1, align 8
  %6 = load ptr, ptr %last.addr, align 8
  %cmp3 = icmp ne ptr %5, %6
  br i1 %cmp3, label %if.then4, label %if.end23

if.then4:                                         ; preds = %if.then2
  %7 = load ptr, ptr %t1, align 8
  %8 = load i8, ptr %7, align 1
  %conv5 = sext i8 %8 to i32
  %call = call i32 @isdigit(i32 noundef %conv5) #12
  %tobool = icmp ne i32 %call, 0
  br i1 %tobool, label %if.then6, label %if.else

if.then6:                                         ; preds = %if.then4
  %9 = load ptr, ptr %t1, align 8
  %add.ptr7 = getelementptr inbounds i8, ptr %9, i64 1
  store ptr %add.ptr7, ptr %first.addr, align 8
  br label %if.end22

if.else:                                          ; preds = %if.then4
  %10 = load ptr, ptr %t1, align 8
  %11 = load i8, ptr %10, align 1
  %conv8 = sext i8 %11 to i32
  %cmp9 = icmp eq i32 %conv8, 95
  br i1 %cmp9, label %if.then10, label %if.end21

if.then10:                                        ; preds = %if.else
  %12 = load ptr, ptr %t1, align 8
  %incdec.ptr = getelementptr inbounds i8, ptr %12, i32 1
  store ptr %incdec.ptr, ptr %t1, align 8
  br label %for.cond

for.cond:                                         ; preds = %for.inc, %if.then10
  %13 = load ptr, ptr %t1, align 8
  %14 = load ptr, ptr %last.addr, align 8
  %cmp11 = icmp ne ptr %13, %14
  br i1 %cmp11, label %land.rhs, label %land.end

land.rhs:                                         ; preds = %for.cond
  %15 = load ptr, ptr %t1, align 8
  %16 = load i8, ptr %15, align 1
  %conv12 = sext i8 %16 to i32
  %call13 = call i32 @isdigit(i32 noundef %conv12) #12
  %tobool14 = icmp ne i32 %call13, 0
  br label %land.end

land.end:                                         ; preds = %land.rhs, %for.cond
  %17 = phi i1 [ false, %for.cond ], [ %tobool14, %land.rhs ]
  br i1 %17, label %for.body, label %for.end

for.body:                                         ; preds = %land.end
  br label %for.inc

for.inc:                                          ; preds = %for.body
  %18 = load ptr, ptr %t1, align 8
  %incdec.ptr15 = getelementptr inbounds i8, ptr %18, i32 1
  store ptr %incdec.ptr15, ptr %t1, align 8
  br label %for.cond, !llvm.loop !4

for.end:                                          ; preds = %land.end
  %19 = load ptr, ptr %t1, align 8
  %20 = load ptr, ptr %last.addr, align 8
  %cmp16 = icmp ne ptr %19, %20
  br i1 %cmp16, label %land.lhs.true, label %if.end

land.lhs.true:                                    ; preds = %for.end
  %21 = load ptr, ptr %t1, align 8
  %22 = load i8, ptr %21, align 1
  %conv17 = sext i8 %22 to i32
  %cmp18 = icmp eq i32 %conv17, 95
  br i1 %cmp18, label %if.then19, label %if.end

if.then19:                                        ; preds = %land.lhs.true
  %23 = load ptr, ptr %t1, align 8
  %add.ptr20 = getelementptr inbounds i8, ptr %23, i64 1
  store ptr %add.ptr20, ptr %first.addr, align 8
  br label %if.end

if.end:                                           ; preds = %if.then19, %land.lhs.true, %for.end
  br label %if.end21

if.end21:                                         ; preds = %if.end, %if.else
  br label %if.end22

if.end22:                                         ; preds = %if.end21, %if.then6
  br label %if.end23

if.end23:                                         ; preds = %if.end22, %if.then2
  br label %if.end46

if.else24:                                        ; preds = %if.then
  %24 = load ptr, ptr %first.addr, align 8
  %25 = load i8, ptr %24, align 1
  %conv25 = sext i8 %25 to i32
  %call26 = call i32 @isdigit(i32 noundef %conv25) #12
  %tobool27 = icmp ne i32 %call26, 0
  br i1 %tobool27, label %if.then28, label %if.end45

if.then28:                                        ; preds = %if.else24
  %26 = load ptr, ptr %first.addr, align 8
  %add.ptr30 = getelementptr inbounds i8, ptr %26, i64 1
  store ptr %add.ptr30, ptr %t129, align 8
  br label %for.cond31

for.cond31:                                       ; preds = %for.inc39, %if.then28
  %27 = load ptr, ptr %t129, align 8
  %28 = load ptr, ptr %last.addr, align 8
  %cmp32 = icmp ne ptr %27, %28
  br i1 %cmp32, label %land.rhs33, label %land.end37

land.rhs33:                                       ; preds = %for.cond31
  %29 = load ptr, ptr %t129, align 8
  %30 = load i8, ptr %29, align 1
  %conv34 = sext i8 %30 to i32
  %call35 = call i32 @isdigit(i32 noundef %conv34) #12
  %tobool36 = icmp ne i32 %call35, 0
  br label %land.end37

land.end37:                                       ; preds = %land.rhs33, %for.cond31
  %31 = phi i1 [ false, %for.cond31 ], [ %tobool36, %land.rhs33 ]
  br i1 %31, label %for.body38, label %for.end41

for.body38:                                       ; preds = %land.end37
  br label %for.inc39

for.inc39:                                        ; preds = %for.body38
  %32 = load ptr, ptr %t129, align 8
  %incdec.ptr40 = getelementptr inbounds i8, ptr %32, i32 1
  store ptr %incdec.ptr40, ptr %t129, align 8
  br label %for.cond31, !llvm.loop !6

for.end41:                                        ; preds = %land.end37
  %33 = load ptr, ptr %t129, align 8
  %34 = load ptr, ptr %last.addr, align 8
  %cmp42 = icmp eq ptr %33, %34
  br i1 %cmp42, label %if.then43, label %if.end44

if.then43:                                        ; preds = %for.end41
  %35 = load ptr, ptr %last.addr, align 8
  store ptr %35, ptr %first.addr, align 8
  br label %if.end44

if.end44:                                         ; preds = %if.then43, %for.end41
  br label %if.end45

if.end45:                                         ; preds = %if.end44, %if.else24
  br label %if.end46

if.end46:                                         ; preds = %if.end45, %if.end23
  br label %if.end47

if.end47:                                         ; preds = %if.end46, %entry
  %36 = load ptr, ptr %first.addr, align 8
  ret ptr %36
}