; Function Attrs: mustprogress nofree norecurse nosync nounwind willreturn memory(read, inaccessiblemem: none) uwtable
define hidden noundef ptr @_ZN4llvh16itanium_demangle19parse_discriminatorEPKcS2_(ptr noundef readonly %first, ptr noundef readnone %last) local_unnamed_addr #0 {
entry:
  %cmp.not = icmp eq ptr %first, %last
  br i1 %cmp.not, label %if.end47, label %if.then

if.then:                                          ; preds = %entry
  %0 = load i8, ptr %first, align 1
  %cmp1 = icmp eq i8 %0, 95
  br i1 %cmp1, label %if.then2, label %if.else24

if.then2:                                         ; preds = %if.then
  %add.ptr = getelementptr inbounds i8, ptr %first, i64 1
  %cmp3.not = icmp eq ptr %add.ptr, %last
  br i1 %cmp3.not, label %if.end47, label %if.then4

if.then4:                                         ; preds = %if.then2
  %1 = load i8, ptr %add.ptr, align 1
  %conv5 = sext i8 %1 to i32
  %isdigittmp27 = add nsw i32 %conv5, -48
  %isdigit28 = icmp ult i32 %isdigittmp27, 10
  br i1 %isdigit28, label %if.then6, label %if.else

if.then6:                                         ; preds = %if.then4
  %add.ptr7 = getelementptr inbounds i8, ptr %first, i64 2
  br label %if.end47

if.else:                                          ; preds = %if.then4
  %cmp9 = icmp ne i8 %1, 95
  %incdec.ptr = getelementptr inbounds i8, ptr %first, i64 2
  %cmp11.not34 = icmp eq ptr %incdec.ptr, %last
  %or.cond = select i1 %cmp9, i1 true, i1 %cmp11.not34
  br i1 %or.cond, label %if.end47, label %land.rhs

land.rhs:                                         ; preds = %if.else, %for.inc
  %t1.035 = phi ptr [ %incdec.ptr15, %for.inc ], [ %incdec.ptr, %if.else ]
  %2 = load i8, ptr %t1.035, align 1
  %conv12 = sext i8 %2 to i32
  %isdigittmp29 = add nsw i32 %conv12, -48
  %isdigit30 = icmp ult i32 %isdigittmp29, 10
  br i1 %isdigit30, label %for.inc, label %land.lhs.true

for.inc:                                          ; preds = %land.rhs
  %incdec.ptr15 = getelementptr inbounds i8, ptr %t1.035, i64 1
  %cmp11.not = icmp eq ptr %incdec.ptr15, %last
  br i1 %cmp11.not, label %if.end47, label %land.rhs, !llvm.loop !4

land.lhs.true:                                    ; preds = %land.rhs
  %cmp18 = icmp eq i8 %2, 95
  %add.ptr20 = getelementptr inbounds i8, ptr %t1.035, i64 1
  %spec.select = select i1 %cmp18, ptr %add.ptr20, ptr %first
  br label %if.end47

if.else24:                                        ; preds = %if.then
  %conv = sext i8 %0 to i32
  %isdigittmp = add nsw i32 %conv, -48
  %isdigit = icmp ult i32 %isdigittmp, 10
  br i1 %isdigit, label %for.cond31, label %if.end47

for.cond31:                                       ; preds = %if.else24, %land.rhs33
  %first.pn = phi ptr [ %t129.0, %land.rhs33 ], [ %first, %if.else24 ]
  %t129.0 = getelementptr inbounds i8, ptr %first.pn, i64 1
  %cmp32.not = icmp eq ptr %t129.0, %last
  br i1 %cmp32.not, label %if.end47, label %land.rhs33

land.rhs33:                                       ; preds = %for.cond31
  %3 = load i8, ptr %t129.0, align 1
  %conv34 = sext i8 %3 to i32
  %isdigittmp25 = add nsw i32 %conv34, -48
  %isdigit26 = icmp ult i32 %isdigittmp25, 10
  br i1 %isdigit26, label %for.cond31, label %if.end47, !llvm.loop !6

if.end47:                                         ; preds = %land.rhs33, %for.cond31, %for.inc, %land.lhs.true, %if.then6, %if.else, %if.then2, %if.else24, %entry
  %first.addr.0 = phi ptr [ %add.ptr7, %if.then6 ], [ %first, %if.else ], [ %first, %if.then2 ], [ %first, %if.else24 ], [ %first, %entry ], [ %spec.select, %land.lhs.true ], [ %first, %for.inc ], [ %first, %land.rhs33 ], [ %last, %for.cond31 ]
  ret ptr %first.addr.0
}